; Function Attrs: nofree norecurse nosync nounwind memory(readwrite, inaccessiblemem: none) uwtable
define internal void @idraw_htext(ptr noundef readonly captures(none) %0, i32 noundef %1, i32 noundef %2, i32 %3, float noundef %4, float noundef %5, ptr noundef readonly captures(none) %6, ptr noundef readonly captures(none) %7) #6 {
  %9 = getelementptr inbounds nuw i8, ptr %0, i64 64
  %10 = sext i32 %1 to i64
  br label %11

11:                                               ; preds = %8, %._crit_edge
  %indvars.iv52 = phi i64 [ 0, %8 ], [ %indvars.iv.next53, %._crit_edge ]
  %12 = getelementptr inbounds nuw [8 x ptr], ptr %0, i64 0, i64 %indvars.iv52
  %13 = load ptr, ptr %12, align 8, !tbaa !71
  %.not = icmp eq ptr %13, null
  br i1 %.not, label %.critedge, label %.preheader43

.preheader43:                                     ; preds = %11
  %14 = load i8, ptr %6, align 1, !tbaa !62
  %.not4048 = icmp eq i8 %14, 0
  br i1 %.not4048, label %._crit_edge, label %.lr.ph

.lr.ph:                                           ; preds = %.preheader43
  %15 = getelementptr inbounds nuw i8, ptr %7, i64 %indvars.iv52
  %16 = getelementptr inbounds nuw [8 x i32], ptr %9, i64 0, i64 %indvars.iv52
  %.pre = load i32, ptr %16, align 4, !tbaa !44
  br label %17

17:                                               ; preds = %.lr.ph, %57
  %18 = phi i32 [ %.pre, %.lr.ph ], [ %52, %57 ]
  %indvars.iv = phi i64 [ 0, %.lr.ph ], [ %indvars.iv.next, %57 ]
  %19 = getelementptr inbounds nuw i8, ptr %6, i64 %indvars.iv
  %20 = load i8, ptr %15, align 1, !tbaa !62
  %21 = zext i8 %20 to i32
  %22 = load ptr, ptr %12, align 8, !tbaa !71
  %23 = mul nsw i32 %18, %2
  %24 = sext i32 %23 to i64
  %25 = getelementptr inbounds i8, ptr %22, i64 %24
  %26 = shl nsw i64 %indvars.iv, 3
  %27 = getelementptr i8, ptr %25, i64 %26
  %28 = getelementptr i8, ptr %27, i64 %10
  br label %.preheader

.preheader:                                       ; preds = %17, %51
  %.047 = phi ptr [ %28, %17 ], [ %55, %51 ]
  %.03846 = phi i32 [ 0, %17 ], [ %56, %51 ]
  br label %29

29:                                               ; preds = %.preheader, %48
  %.145 = phi ptr [ %.047, %.preheader ], [ %49, %48 ]
  %.03744 = phi i32 [ 128, %.preheader ], [ %50, %48 ]
  %30 = load i8, ptr %19, align 1, !tbaa !62
  %31 = sext i8 %30 to i32
  %32 = shl nsw i32 %31, 3
  %33 = add nuw nsw i32 %32, %.03846
  %34 = sext i32 %33 to i64
  %35 = getelementptr inbounds i8, ptr @avpriv_cga_font, i64 %34
  %36 = load i8, ptr %35, align 1, !tbaa !62
  %37 = zext i8 %36 to i32
  %38 = and i32 %.03744, %37
  %.not42 = icmp eq i32 %38, 0
  br i1 %.not42, label %48, label %39

39:                                               ; preds = %29
  %40 = load i8, ptr %.145, align 1, !tbaa !62
  %41 = zext i8 %40 to i32
  %42 = uitofp i8 %40 to float
  %43 = sub nsw i32 %21, %41
  %44 = sitofp i32 %43 to float
  %45 = fmul nsz float %4, %44
  %46 = tail call nsz float @llvm.fmuladd.f32(float %42, float %5, float %45)
  %47 = fptoui float %46 to i8
  store i8 %47, ptr %.145, align 1, !tbaa !62
  br label %48

48:                                               ; preds = %39, %29
  %49 = getelementptr inbounds nuw i8, ptr %.145, i64 1
  %50 = lshr i32 %.03744, 1
  %.not41 = icmp samesign ult i32 %.03744, 2
  br i1 %.not41, label %51, label %29, !llvm.loop !271

51:                                               ; preds = %48
  %52 = load i32, ptr %16, align 4, !tbaa !44
  %53 = sext i32 %52 to i64
  %54 = getelementptr i8, ptr %49, i64 %53
  %55 = getelementptr i8, ptr %54, i64 -8
  %56 = add nuw nsw i32 %.03846, 1
  %exitcond.not = icmp eq i32 %56, 8
  br i1 %exitcond.not, label %57, label %.preheader, !llvm.loop !272

57:                                               ; preds = %51
  %indvars.iv.next = add nuw nsw i64 %indvars.iv, 1
  %58 = getelementptr inbounds nuw i8, ptr %6, i64 %indvars.iv.next
  %59 = load i8, ptr %58, align 1, !tbaa !62
  %.not40 = icmp eq i8 %59, 0
  br i1 %.not40, label %._crit_edge, label %17, !llvm.loop !273

._crit_edge:                                      ; preds = %57, %.preheader43
  %indvars.iv.next53 = add nuw nsw i64 %indvars.iv52, 1
  %exitcond55.not = icmp eq i64 %indvars.iv.next53, 4
  br i1 %exitcond55.not, label %.critedge, label %11, !llvm.loop !274

.critedge:                                        ; preds = %._crit_edge, %11
  ret void
}